(dp0
VG26
p1
(dp2
S'G24'
p3
I155
sS'G28'
p4
I80
ssVG24
p5
(dp6
S'G26'
p7
I155
sS'G22'
p8
I60
ssVG22
p9
(dp10
S'G24'
p11
I60
sS'F09'
p12
I510
sS'719'
p13
I510
ssVG20
p14
(dp15
S'G19'
p16
I120
sS'G21'
p17
I125
ssVG21
p18
(dp19
S'G20'
p20
I125
sS'718'
p21
I510
sS'R08'
p22
I630
sS'R11'
p23
I364
sS'G14'
p24
I359
sS'F09'
p25
I103
ssVG28
p26
(dp27
S'G26'
p28
I80
sS'G29'
p29
I170
ssVG29
p30
(dp31
S'G30'
p32
I80
sS'L10'
p33
I510
sS'G28'
p34
I170
ssV719
p35
(dp36
S'G22'
p37
I510
sS'F09'
p38
I630
sS'720'
p39
I118
sS'718'
p40
I122
ssV718
p41
(dp42
S'719'
p43
I122
sS'G21'
p44
I510
sS'R09'
p45
I330
sS'716'
p46
I147
sS'712'
p47
I336
sS'B04'
p48
I630
ssV716
p49
(dp50
S'715'
p51
I76
sS'718'
p52
I147
ssV715
p53
(dp54
S'716'
p55
I76
sS'714'
p56
I60
ssV714
p57
(dp58
S'715'
p59
I60
sS'713'
p60
I60
ssV713
p61
(dp62
S'714'
p63
I60
sS'712'
p64
I117
ssV712
p65
(dp66
S'707'
p67
I255
sS'713'
p68
I117
sS'711'
p69
I122
sS'718'
p70
I336
ssV711
p71
(dp72
S'712'
p73
I122
sS'710'
p74
I90
ssV710
p75
(dp76
S'G14'
p77
I510
sS'709'
p78
I62
sS'711'
p79
I90
ssVB23
p80
(dp81
S'D43'
p82
I330
sS'B22'
p83
I144
ssVB22
p84
(dp85
S'B23'
p86
I144
sS'B21'
p87
I92
ssVB21
p88
(dp89
S'B22'
p90
I92
sS'B20'
p91
I62
ssVB20
p92
(dp93
S'B21'
p94
I62
sS'B19'
p95
I88
ssVJ27
p96
(dp97
S'A51'
p98
I510
sS'L22'
p99
I510
sS'J24'
p100
I124
sS'J29'
p101
I150
sS'J28'
p102
I98
ssVJ24
p103
(dp104
S'J27'
p105
I124
sS'J23'
p106
I88
sS'J22'
p107
I150
ssVJ23
p108
(dp109
S'J24'
p110
I88
sS'J22'
p111
I90
sS'J21'
p112
I150
ssVJ22
p113
(dp114
S'J24'
p115
I150
sS'J23'
p116
I90
sS'J21'
p117
I60
sS'J20'
p118
I150
ssVJ21
p119
(dp120
S'J23'
p121
I150
sS'J22'
p122
I60
sS'J20'
p123
I117
ssVJ20
p124
(dp125
S'J17'
p126
I150
sS'J22'
p127
I150
sS'J21'
p128
I117
sS'J19'
p129
I110
ssVJ29
p130
(dp131
S'J27'
p132
I150
sS'J30'
p133
I90
sS'J31'
p134
I150
sS'J28'
p135
I90
ssVJ28
p136
(dp137
S'J27'
p138
I98
sS'J30'
p139
I150
sS'J29'
p140
I90
ssVF05
p141
(dp142
S'F04'
p143
I107
sS'G07'
p144
I120
sS'F06'
p145
I116
ssVF04
p146
(dp147
S'F05'
p148
I107
sS'G07'
p149
I720
sS'F03'
p150
I84
ssVF07
p151
(dp152
S'F06'
p153
I90
sS'G08'
p154
I119
ssVF06
p155
(dp156
S'F05'
p157
I116
sS'F07'
p158
I90
sS'G07'
p159
I197
sS'G08'
p160
I159
sS'F03'
p161
I226
ssVF01
p162
(dp163
S'F03'
p164
I171
sS'F02'
p165
I197
ssVA54
p166
(dp167
S'A53'
p168
I101
sS'A55'
p169
I92
ssVF03
p170
(dp171
S'F04'
p172
I84
sS'F06'
p173
I226
sS'F01'
p174
I171
sS'F02'
p175
I194
ssVF02
p176
(dp177
S'F01'
p178
I197
sS'F03'
p179
I194
ssVA59
p180
(dp181
S'A60'
p182
I90
sS'A57'
p183
I87
ssVF09
p184
(dp185
S'F11'
p186
I194
sS'G22'
p187
I510
sS'719'
p188
I630
sS'G21'
p189
I103
ssVN09
p190
(dp191
S'N10'
p192
I78
sS'N08'
p193
I107
ssVN08
p194
(dp195
S'N07'
p196
I120
sS'N09'
p197
I107
ssVN05
p198
(dp199
S'N04'
p200
I90
sS'N06'
p201
I77
ssVN04
p202
(dp203
S'N05'
p204
I90
sS'B16'
p205
I510
sS'N03'
p206
I132
ssVN07
p207
(dp208
S'N06'
p209
I90
sS'N08'
p210
I120
ssVN06
p211
(dp212
S'N05'
p213
I77
sS'N07'
p214
I90
ssVN03
p215
(dp216
S'N04'
p217
I132
sS'N02'
p218
I77
ssVN02
p219
(dp220
S'R41'
p221
I180
sS'N03'
p222
I77
ssVH10
p223
(dp224
S'H11'
p225
I91
sS'H09'
p226
I118
ssVH11
p227
(dp228
S'H10'
p229
I91
ssVH12
p230
(dp231
S'H13'
p232
I95
sS'H06'
p233
I1080
sS'H04'
p234
I225
ssVH13
p235
(dp236
S'H12'
p237
I95
sS'H14'
p238
I89
ssVH14
p239
(dp240
S'H13'
p241
I89
sS'H15'
p242
I108
ssVH15
p243
(dp244
S'H14'
p245
I108
ssVM22
p246
(dp247
S'A38'
p248
I510
sS'418'
p249
I630
sS'M21'
p250
I81
sS'229'
p251
I630
sS'M23'
p252
I96
ssVM23
p253
(dp254
S'230'
p255
I420
sS'M22'
p256
I96
ssV108
p257
(dp258
S'A02'
p259
I540
sS'109'
p260
I90
sS'107'
p261
I74
ssV109
p262
(dp263
S'108'
p264
I90
sS'110'
p265
I88
ssV103
p266
(dp267
S'101'
p268
I136
sS'401'
p269
I1470
sS'104'
p270
I91
sS'402'
p271
I1230
ssV101
p272
(dp273
S'103'
p274
I136
sS'402'
p275
I1260
sS'401'
p276
I1470
ssV106
p277
(dp278
S'406'
p279
I1080
sS'107'
p280
I91
sS'104'
p281
I90
ssV107
p282
(dp283
S'A02'
p284
I540
sS'108'
p285
I74
sS'106'
p286
I91
ssV104
p287
(dp288
S'103'
p289
I91
sS'106'
p290
I90
ssV902
p291
(dp292
S'R16'
p293
I510
sS'725'
p294
I630
sS'901'
p295
I90
sS'A27'
p296
I630
sS'127'
p297
I510
ssVA46
p298
(dp299
S'A47'
p300
I108
sS'A45'
p301
I65
sS'A42'
p302
I303
sS'A48'
p303
I164
ssV901
p304
(dp305
S'902'
p306
I90
sS'631'
p307
I510
sS'723'
p308
I630
ssVA47
p309
(dp310
S'A46'
p311
I108
sS'A48'
p312
I97
ssV247
p313
(dp314
S'246'
p315
I131
ssV640
p316
(dp317
S'639'
p318
I157
sS'418'
p319
I114
sS'635'
p320
I295
sS'M21'
p321
I510
ssVA45
p322
(dp323
S'A46'
p324
I65
sS'S01'
p325
I510
sS'A44'
p326
I91
ssVA42
p327
(dp328
S'A46'
p329
I303
sS'F20'
p330
I112
sS'A43'
p331
I116
sS'A41'
p332
I95
sS'G36'
p333
I113
ssVA40
p334
(dp335
S'A38'
p336
I189
sS'A41'
p337
I121
ssVA41
p338
(dp339
S'F18'
p340
I95
sS'F20'
p341
I166
sS'A42'
p342
I95
sS'R29'
p343
I420
sS'A40'
p344
I121
ssVR39
p345
(dp346
S'R36'
p347
I134
sS'R40'
p348
I90
ssV249
p349
(dp350
S'250'
p351
I127
sS'248'
p352
I102
ssVA48
p353
(dp354
S'A51'
p355
I210
sS'A47'
p356
I97
sS'A46'
p357
I164
sS'A49'
p358
I105
ssVF15
p359
(dp360
S'M18'
p361
I510
sS'F16'
p362
I84
sS'F14'
p363
I102
ssVG19
p364
(dp365
S'G20'
p366
I120
sS'G18'
p367
I94
ssVG18
p368
(dp369
S'G16'
p370
I90
sS'G19'
p371
I94
ssVG16
p372
(dp373
S'G15'
p374
I79
sS'G18'
p375
I90
ssVG15
p376
(dp377
S'G16'
p378
I79
sS'G14'
p379
I90
ssVG14
p380
(dp381
S'G21'
p382
I359
sS'710'
p383
I510
sS'G08'
p384
I427
sS'B04'
p385
I396
sS'G15'
p386
I90
sS'G13'
p387
I159
ssVG13
p388
(dp389
S'G14'
p390
I159
sS'G12'
p391
I90
ssVG12
p392
(dp393
S'G13'
p394
I90
sS'G11'
p395
I116
ssVG11
p396
(dp397
S'G12'
p398
I116
sS'G10'
p399
I68
ssVG10
p400
(dp401
S'G09'
p402
I113
sS'G11'
p403
I68
ssVQ01
p404
(dp405
S'639'
p406
I510
sS'M20'
p407
I510
sS'R23'
p408
I510
sS'R31'
p409
I660
sS'R30'
p410
I491
sS'R22'
p411
I123
sS'R20'
p412
I249
ssVD38
p413
(dp414
S'D37'
p415
I60
sS'D39'
p416
I136
ssVD39
p417
(dp418
S'D35'
p419
I246
sS'D40'
p420
I157
sS'D38'
p421
I136
ssVD37
p422
(dp423
S'D35'
p424
I147
sS'D38'
p425
I60
ssVD34
p426
(dp427
S'D35'
p428
I140
sS'D33'
p429
I104
ssVD35
p430
(dp431
S'D37'
p432
I147
sS'D34'
p433
I140
sS'D31'
p434
I258
sS'D39'
p435
I246
ssVD32
p436
(dp437
S'D33'
p438
I75
sS'D31'
p439
I74
ssVD33
p440
(dp441
S'D34'
p442
I104
sS'D32'
p443
I75
ssVD30
p444
(dp445
S'D29'
p446
I48
sS'D31'
p447
I91
ssVD31
p448
(dp449
S'D28'
p450
I152
sS'D35'
p451
I258
sS'D32'
p452
I74
sS'D30'
p453
I91
ssV238
p454
(dp455
S'237'
p456
I105
sS'239'
p457
I117
ssV239
p458
(dp459
S'S04'
p460
I510
sS'238'
p461
I117
sS'235'
p462
I250
sS'241'
p463
I166
sS'250'
p464
I232
sS'248'
p465
I100
ssV234
p466
(dp467
S'235'
p468
I91
sS'423'
p469
I116
sS'233'
p470
I78
ssV235
p471
(dp472
S'G36'
p473
I540
sS'D24'
p474
I510
sS'A43'
p475
I510
sS'234'
p476
I91
sS'236'
p477
I75
sS'R31'
p478
I510
sS'239'
p479
I250
ssV236
p480
(dp481
S'235'
p482
I75
sS'237'
p483
I120
ssV237
p484
(dp485
S'236'
p486
I120
sS'238'
p487
I105
ssV230
p488
(dp489
S'419'
p490
I480
sS'231'
p491
I240
sS'229'
p492
I77
sS'M23'
p493
I420
ssV231
p494
(dp495
S'230'
p496
I240
sS'232'
p497
I95
ssV232
p498
(dp499
S'423'
p500
I630
sS'R28'
p501
I510
sS'231'
p502
I95
sS'233'
p503
I89
ssV233
p504
(dp505
S'234'
p506
I78
sS'232'
p507
I89
ssV618
p508
(dp509
S'619'
p510
I90
sS'617'
p511
I60
ssV619
p512
(dp513
S'613'
p514
I411
sS'618'
p515
I90
sS'621'
p516
I182
sS'221'
p517
I780
sS'222'
p518
I840
ssV140
p519
(dp520
S'R27'
p521
I450
sS'420'
p522
I480
sS'139'
p523
I181
ssV612
p524
(dp525
S'613'
p526
I141
sS'611'
p527
I99
ssV613
p528
(dp529
S'612'
p530
I141
sS'217'
p531
I600
sS'619'
p532
I411
sS'608'
p533
I364
sS'614'
p534
I103
ssV610
p535
(dp536
S'611'
p537
I60
sS'609'
p538
I90
ssV611
p539
(dp540
S'612'
p541
I99
sS'610'
p542
I60
ssV616
p543
(dp544
S'617'
p545
I120
sS'615'
p546
I72
ssV617
p547
(dp548
S'618'
p549
I60
sS'616'
p550
I120
ssV614
p551
(dp552
S'613'
p553
I103
sS'615'
p554
I107
ssV615
p555
(dp556
S'616'
p557
I72
sS'614'
p558
I107
ssVD43
p559
(dp560
S'D42'
p561
I90
sS'N10'
p562
I341
sS'B23'
p563
I330
ssVD42
p564
(dp565
S'D43'
p566
I90
sS'F39'
p567
I90
sS'D41'
p568
I105
ssVD41
p569
(dp570
S'D42'
p571
I105
sS'D40'
p572
I172
ssVD40
p573
(dp574
S'D41'
p575
I172
sS'D39'
p576
I157
ssVA09
p577
(dp578
S'A10'
p579
I78
sS'112'
p580
I510
sS'A07'
p581
I164
sS'A12'
p582
I205
ssVA02
p583
(dp584
S'A03'
p585
I140
sS'108'
p586
I540
sS'107'
p587
I540
ssVA03
p588
(dp589
S'A02'
p590
I140
sS'A05'
p591
I146
ssVA06
p592
(dp593
S'A07'
p594
I61
sS'A05'
p595
I120
ssVA07
p596
(dp597
S'A09'
p598
I164
sS'A06'
p599
I61
ssVA05
p600
(dp601
S'A03'
p602
I146
sS'A06'
p603
I120
ssV133
p604
(dp605
S'132'
p606
I90
sS'134'
p607
I94
ssV132
p608
(dp609
S'D19'
p610
I630
sS'L02'
p611
I510
sS'133'
p612
I90
sS'131'
p613
I60
sS'137'
p614
I279
sS'128'
p615
I174
ssV131
p616
(dp617
S'132'
p618
I60
sS'130'
p619
I60
ssV130
p620
(dp621
S'129'
p622
I60
sS'131'
p623
I60
ssV137
p624
(dp625
S'132'
p626
I279
sS'138'
p627
I136
sS'136'
p628
I98
sS'228'
p629
I77
ssV136
p630
(dp631
S'137'
p632
I98
sS'135'
p633
I60
ssV135
p634
(dp635
S'136'
p636
I60
sS'134'
p637
I102
ssV134
p638
(dp639
S'133'
p640
I94
sS'135'
p641
I102
ssV139
p642
(dp643
S'R26'
p644
I360
sS'138'
p645
I75
sS'140'
p646
I181
ssV138
p647
(dp648
S'139'
p649
I75
sS'137'
p650
I136
ssV407
p651
(dp652
S'406'
p653
I86
sS'408'
p654
I60
ssV406
p655
(dp656
S'407'
p657
I86
sS'405'
p658
I120
sS'106'
p659
I1080
ssV405
p660
(dp661
S'406'
p662
I120
sS'D03'
p663
I420
sS'402'
p664
I120
ssV402
p665
(dp666
S'D01'
p667
I750
sS'208'
p668
I1230
sS'405'
p669
I120
sS'401'
p670
I120
sS'103'
p671
I1230
sS'101'
p672
I1260
ssV401
p673
(dp674
S'103'
p675
I1470
sS'101'
p676
I1470
sS'402'
p677
I120
sS'D01'
p678
I1020
sS'208'
p679
I1260
ssVR34
p680
(dp681
S'R35'
p682
I90
sS'R33'
p683
I118
ssVR35
p684
(dp685
S'R34'
p686
I90
sS'R36'
p687
I91
ssVR36
p688
(dp689
S'R35'
p690
I91
sS'R41'
p691
I263
sS'R31'
p692
I331
sS'B12'
p693
I240
sS'R39'
p694
I134
ssVR30
p695
(dp696
S'D22'
p697
I487
sS'Q01'
p698
I491
sS'D24'
p699
I95
sS'R29'
p700
I115
sS'R31'
p701
I200
ssVR31
p702
(dp703
S'D22'
p704
I637
sS'D24'
p705
I630
sS'235'
p706
I510
sS'R36'
p707
I331
sS'Q01'
p708
I660
sS'R30'
p709
I200
sS'R32'
p710
I120
ssV409
p711
(dp712
S'408'
p713
I161
sS'410'
p714
I91
sS'413'
p715
I300
ssV408
p716
(dp717
S'407'
p718
I60
sS'409'
p719
I161
ssVL08
p720
(dp721
S'L06'
p722
I240
sS'L10'
p723
I103
ssVL06
p724
(dp725
S'L05'
p726
I60
sS'L08'
p727
I240
ssVL05
p728
(dp729
S'L06'
p730
I60
sS'L03'
p731
I55
ssVL03
p732
(dp733
S'L05'
p734
I55
sS'R20'
p735
I510
sS'L02'
p736
I110
sS'635'
p737
I510
ssVL02
p738
(dp739
S'132'
p740
I510
sS'L03'
p741
I110
sS'D19'
p742
I510
sS'L01'
p743
I75
ssVL01
p744
(dp745
S'A31'
p746
I420
sS'L02'
p747
I75
ssV708
p748
(dp749
S'707'
p750
I83
sS'709'
p751
I64
ssV709
p752
(dp753
S'708'
p754
I64
sS'710'
p755
I62
ssV705
p756
(dp757
S'706'
p758
I61
sS'702'
p759
I121
ssV706
p760
(dp761
S'705'
p762
I61
sS'707'
p763
I64
ssV707
p764
(dp765
S'706'
p766
I64
sS'708'
p767
I83
sS'712'
p768
I255
sS'702'
p769
I210
ssV701
p770
(dp771
S'702'
p772
I218
ssV702
p773
(dp774
S'705'
p775
I121
sS'707'
p776
I210
sS'701'
p777
I218
ssVJ30
p778
(dp779
S'M11'
p780
I185
sS'J31'
p781
I90
sS'J29'
p782
I90
sS'J28'
p783
I150
ssVJ31
p784
(dp785
S'M11'
p786
I96
sS'J30'
p787
I90
sS'J29'
p788
I150
ssVD07
p789
(dp790
S'D06'
p791
I150
sS'D05'
p792
I205
sS'D08'
p793
I90
sS'D13'
p794
I491
ssVD06
p795
(dp796
S'D07'
p797
I150
sS'D05'
p798
I90
ssVD05
p799
(dp800
S'D07'
p801
I205
sS'D06'
p802
I90
sS'D04'
p803
I91
ssVD04
p804
(dp805
S'D05'
p806
I91
sS'D03'
p807
I164
ssVD03
p808
(dp809
S'405'
p810
I420
sS'D04'
p811
I164
sS'D01'
p812
I142
ssVD01
p813
(dp814
S'208'
p815
I1080
sS'D03'
p816
I142
sS'402'
p817
I750
sS'401'
p818
I1020
ssVD09
p819
(dp820
S'D10'
p821
I120
sS'D08'
p822
I137
ssVD08
p823
(dp824
S'D07'
p825
I90
sS'D09'
p826
I137
ssV245
p827
(dp828
S'244'
p829
I159
sS'246'
p830
I74
ssV244
p831
(dp832
S'245'
p833
I159
sS'243'
p834
I97
ssVA44
p835
(dp836
S'A45'
p837
I91
sS'A43'
p838
I95
ssV246
p839
(dp840
S'245'
p841
I74
sS'247'
p842
I131
ssV241
p843
(dp844
S'239'
p845
I166
sS'242'
p846
I89
ssVA43
p847
(dp848
S'235'
p849
I510
sS'A44'
p850
I95
sS'A42'
p851
I116
ssV243
p852
(dp853
S'244'
p854
I97
sS'242'
p855
I94
ssV242
p856
(dp857
S'241'
p858
I89
sS'243'
p859
I94
ssVF12
p860
(dp861
S'D14'
p862
I98
sS'D15'
p863
I124
sS'F11'
p864
I105
ssVF11
p865
(dp866
S'F12'
p867
I105
sS'630'
p868
I510
sS'F09'
p869
I194
ssVF16
p870
(dp871
S'F18'
p872
I183
sS'F15'
p873
I84
ssV248
p874
(dp875
S'249'
p876
I102
sS'239'
p877
I100
ssVF14
p878
(dp879
S'D21'
p880
I90
sS'M19'
p881
I600
sS'F15'
p882
I102
ssVA49
p883
(dp884
S'A50'
p885
I104
sS'A48'
p886
I105
ssVN10
p887
(dp888
S'D43'
p889
I341
sS'N09'
p890
I78
ssV623
p891
(dp892
S'622'
p893
I84
sS'624'
p894
I65
ssV622
p895
(dp896
S'623'
p897
I84
sS'621'
p898
I95
ssV621
p899
(dp900
S'622'
p901
I95
sS'416'
p902
I154
sS'619'
p903
I182
sS'626'
p904
I291
sS'415'
p905
I343
ssV627
p906
(dp907
S'628'
p908
I109
sS'626'
p909
I106
ssV626
p910
(dp911
S'621'
p912
I291
sS'627'
p913
I106
sS'629'
p914
I228
sS'625'
p915
I120
ssV625
p916
(dp917
S'626'
p918
I120
sS'624'
p919
I90
ssV624
p920
(dp921
S'623'
p922
I65
sS'625'
p923
I90
ssV629
p924
(dp925
S'630'
p926
I99
sS'631'
p927
I154
sS'626'
p928
I228
sS'R11'
p929
I510
sS'628'
p930
I103
sS'B08'
p931
I630
ssV628
p932
(dp933
S'629'
p934
I103
sS'627'
p935
I109
ssVA33
p936
(dp937
S'A32'
p938
I105
sS'A34'
p939
I93
ssVA32
p940
(dp941
S'A33'
p942
I105
sS'D20'
p943
I510
sS'A31'
p944
I138
sS'A34'
p945
I150
ssVA31
p946
(dp947
S'A28'
p948
I176
sS'A32'
p949
I138
sS'A30'
p950
I90
sS'L01'
p951
I420
ssVA30
p952
(dp953
S'A28'
p954
I114
sS'A31'
p955
I90
ssVA36
p956
(dp957
S'228'
p958
I510
sS'A38'
p959
I120
sS'E01'
p960
I630
sS'A34'
p961
I110
ssVA34
p962
(dp963
S'A33'
p964
I93
sS'A32'
p965
I150
sS'A36'
p966
I110
sS'E01'
p967
I136
ssVA38
p968
(dp969
S'M22'
p970
I510
sS'418'
p971
I510
sS'229'
p972
I510
sS'A36'
p973
I120
sS'A40'
p974
I189
ssVL26
p975
(dp976
S'L25'
p977
I81
sS'254'
p978
I630
sS'L27'
p979
I90
ssVL29
p980
(dp981
S'L28'
p982
I97
ssVL28
p983
(dp984
S'L29'
p985
I97
sS'L27'
p986
I123
ssVA51
p987
(dp988
S'J27'
p989
I510
sS'A50'
p990
I75
sS'A52'
p991
I181
sS'A55'
p992
I286
sS'L22'
p993
I510
sS'A48'
p994
I210
ssVA50
p995
(dp996
S'A51'
p997
I75
sS'A49'
p998
I104
ssVA53
p999
(dp1000
S'A52'
p1001
I91
sS'A54'
p1002
I101
ssVM11
p1003
(dp1004
S'M10'
p1005
I152
sS'M12'
p1006
I76
sS'J30'
p1007
I185
sS'J31'
p1008
I96
sS'M16'
p1009
I240
ssVM10
p1010
(dp1011
S'M11'
p1012
I152
sS'M09'
p1013
I105
ssVM13
p1014
(dp1015
S'G30'
p1016
I390
sS'M12'
p1017
I90
sS'M14'
p1018
I77
ssVA52
p1019
(dp1020
S'A51'
p1021
I181
sS'A53'
p1022
I91
ssVR41
p1023
(dp1024
S'R36'
p1025
I263
sS'N02'
p1026
I180
sS'R40'
p1027
I90
sS'R42'
p1028
I127
ssVM14
p1029
(dp1030
S'M13'
p1031
I77
sS'M16'
p1032
I60
ssVR43
p1033
(dp1034
S'R44'
p1035
I120
sS'R42'
p1036
I90
ssVM16
p1037
(dp1038
S'M11'
p1039
I240
sS'M18'
p1040
I455
sS'M14'
p1041
I60
sS'G30'
p1042
I660
ssVM19
p1043
(dp1044
S'M18'
p1045
I100
sS'D22'
p1046
I480
sS'M20'
p1047
I107
sS'F14'
p1048
I600
ssVA55
p1049
(dp1050
S'A51'
p1051
I286
sS'A54'
p1052
I92
sS'A57'
p1053
I102
ssVA57
p1054
(dp1055
S'A59'
p1056
I87
sS'A55'
p1057
I102
ssVG08
p1058
(dp1059
S'F07'
p1060
I119
sS'G14'
p1061
I427
sS'F06'
p1062
I159
sS'G09'
p1063
I98
ssVG09
p1064
(dp1065
S'G08'
p1066
I98
sS'G10'
p1067
I113
ssVG05
p1068
(dp1069
S'G06'
p1070
I146
ssVG06
p1071
(dp1072
S'G05'
p1073
I146
sS'G07'
p1074
I157
sS'J12'
p1075
I240
sS'J13'
p1076
I300
ssVG07
p1077
(dp1078
S'F05'
p1079
I120
sS'F04'
p1080
I720
sS'G06'
p1081
I157
sS'F06'
p1082
I197
ssV201
p1083
(dp1084
S'204'
p1085
I176
sS'501'
p1086
I1740
ssV205
p1087
(dp1088
S'501'
p1089
I1590
sS'204'
p1090
I98
sS'206'
p1091
I87
ssV204
p1092
(dp1093
S'201'
p1094
I176
sS'205'
p1095
I98
ssV207
p1096
(dp1097
S'208'
p1098
I99
sS'206'
p1099
I63
ssV206
p1100
(dp1101
S'205'
p1102
I87
sS'207'
p1103
I63
ssV209
p1104
(dp1105
S'208'
p1106
I92
sS'210'
p1107
I87
ssV208
p1108
(dp1109
S'209'
p1110
I92
sS'D01'
p1111
I1080
sS'401'
p1112
I1260
sS'207'
p1113
I99
sS'402'
p1114
I1230
ssVF23
p1115
(dp1116
S'F22'
p1117
I111
sS'R33'
p1118
I510
sS'F24'
p1119
I106
ssVF22
p1120
(dp1121
S'F23'
p1122
I111
sS'F21'
p1123
I122
ssVF21
p1124
(dp1125
S'F22'
p1126
I122
sS'F20'
p1127
I97
ssVF20
p1128
(dp1129
S'F21'
p1130
I97
sS'A42'
p1131
I112
sS'A41'
p1132
I166
ssVF27
p1133
(dp1134
S'F29'
p1135
I125
sS'F26'
p1136
I104
ssVF26
p1137
(dp1138
S'F27'
p1139
I104
sS'F25'
p1140
I153
ssVF25
p1141
(dp1142
S'F26'
p1143
I153
sS'F24'
p1144
I102
ssVF24
p1145
(dp1146
S'F23'
p1147
I106
sS'F25'
p1148
I102
ssVF29
p1149
(dp1150
S'F30'
p1151
I108
sS'F27'
p1152
I125
ssV120
p1153
(dp1154
S'227'
p1155
I273
sS'121'
p1156
I114
sS'123'
p1157
I175
sS'119'
p1158
I105
sS'A19'
p1159
I720
ssV121
p1160
(dp1161
S'120'
p1162
I114
sS'122'
p1163
I70
ssV122
p1164
(dp1165
S'121'
p1166
I70
sS'123'
p1167
I97
ssV123
p1168
(dp1169
S'120'
p1170
I175
sS'122'
p1171
I97
sS'124'
p1172
I78
sS'127'
p1173
I262
ssV124
p1174
(dp1175
S'123'
p1176
I78
sS'125'
p1177
I90
ssV125
p1178
(dp1179
S'A24'
p1180
I510
sS'124'
p1181
I90
sS'126'
p1182
I122
ssV126
p1183
(dp1184
S'125'
p1185
I122
sS'127'
p1186
I110
ssV127
p1187
(dp1188
S'902'
p1189
I510
sS'R16'
p1190
I510
sS'A27'
p1191
I630
sS'123'
p1192
I262
sS'126'
p1193
I110
sS'128'
p1194
I75
sS'725'
p1195
I510
ssV128
p1196
(dp1197
S'129'
p1198
I77
sS'127'
p1199
I75
sS'132'
p1200
I174
ssV129
p1201
(dp1202
S'128'
p1203
I77
sS'130'
p1204
I60
ssVR01
p1205
(dp1206
S'R03'
p1207
I92
ssVR03
p1208
(dp1209
S'R01'
p1210
I92
sS'R04'
p1211
I74
ssVR05
p1212
(dp1213
S'R04'
p1214
I92
sS'R06'
p1215
I117
ssVR04
p1216
(dp1217
S'R03'
p1218
I74
sS'R05'
p1219
I92
ssVR06
p1220
(dp1221
S'R08'
p1222
I62
sS'R05'
p1223
I117
ssVR09
p1224
(dp1225
S'R08'
p1226
I161
sS'718'
p1227
I330
sS'R11'
p1228
I278
ssVR08
p1229
(dp1230
S'R09'
p1231
I161
sS'G21'
p1232
I630
sS'B04'
p1233
I840
sS'R06'
p1234
I62
ssV414
p1235
(dp1236
S'415'
p1237
I165
sS'D11'
p1238
I510
sS'413'
p1239
I110
ssV415
p1240
(dp1241
S'414'
p1242
I165
sS'416'
p1243
I122
sS'621'
p1244
I343
sS'222'
p1245
I510
ssV416
p1246
(dp1247
S'415'
p1248
I122
sS'621'
p1249
I154
sS'222'
p1250
I171
ssV410
p1251
(dp1252
S'411'
p1253
I73
sS'409'
p1254
I91
ssV411
p1255
(dp1256
S'410'
p1257
I73
sS'412'
p1258
I70
ssV412
p1259
(dp1260
S'411'
p1261
I70
sS'413'
p1262
I91
ssV413
p1263
(dp1264
S'414'
p1265
I110
sS'412'
p1266
I91
sS'409'
p1267
I300
ssV418
p1268
(dp1269
S'A38'
p1270
I510
sS'M22'
p1271
I630
sS'640'
p1272
I114
sS'229'
p1273
I630
sS'R25'
p1274
I390
sS'419'
p1275
I70
ssV419
p1276
(dp1277
S'420'
p1278
I88
sS'230'
p1279
I480
sS'418'
p1280
I70
ssVL19
p1281
(dp1282
S'L20'
p1283
I141
sS'L17'
p1284
I96
ssVL14
p1285
(dp1286
S'L15'
p1287
I122
sS'L13'
p1288
I102
ssVL15
p1289
(dp1290
S'L14'
p1291
I122
sS'L16'
p1292
I87
ssVL16
p1293
(dp1294
S'L15'
p1295
I87
sS'L17'
p1296
I95
ssVL17
p1297
(dp1298
S'L16'
p1299
I95
sS'L19'
p1300
I96
sS'M08'
p1301
I510
ssVL10
p1302
(dp1303
S'G29'
p1304
I510
sS'L11'
p1305
I65
sS'L08'
p1306
I103
ssVL11
p1307
(dp1308
S'L10'
p1309
I65
sS'L12'
p1310
I87
ssVL12
p1311
(dp1312
S'L11'
p1313
I87
sS'L13'
p1314
I60
ssVL13
p1315
(dp1316
S'L14'
p1317
I102
sS'L12'
p1318
I60
ssVR45
p1319
(dp1320
S'R44'
p1321
I158
ssVR44
p1322
(dp1323
S'R45'
p1324
I158
sS'R43'
p1325
I120
ssVM12
p1326
(dp1327
S'M11'
p1328
I76
sS'M13'
p1329
I90
ssVR40
p1330
(dp1331
S'R41'
p1332
I90
sS'R39'
p1333
I90
ssVM20
p1334
(dp1335
S'M19'
p1336
I107
sS'639'
p1337
I510
sS'Q01'
p1338
I510
sS'R23'
p1339
I630
sS'M21'
p1340
I105
ssVR42
p1341
(dp1342
S'R41'
p1343
I127
sS'R43'
p1344
I90
ssVM21
p1345
(dp1346
S'640'
p1347
I510
sS'M20'
p1348
I105
sS'M22'
p1349
I81
ssVB04
p1350
(dp1351
S'R08'
p1352
I840
sS'718'
p1353
I630
sS'G14'
p1354
I396
sS'B06'
p1355
I122
ssVB06
p1356
(dp1357
S'B08'
p1358
I152
sS'B04'
p1359
I122
ssVB08
p1360
(dp1361
S'629'
p1362
I630
sS'R11'
p1363
I630
sS'B10'
p1364
I171
sS'B06'
p1365
I152
ssVD14
p1366
(dp1367
S'F12'
p1368
I98
sS'D15'
p1369
I96
sS'A24'
p1370
I128
sS'A25'
p1371
I90
ssVD15
p1372
(dp1373
S'D14'
p1374
I96
sS'F12'
p1375
I124
sS'D16'
p1376
I105
sS'B10'
p1377
I114
ssVD16
p1378
(dp1379
S'D15'
p1380
I105
sS'724'
p1381
I510
sS'D17'
p1382
I93
ssVD17
p1383
(dp1384
S'D20'
p1385
I182
sS'D16'
p1386
I93
sS'D18'
p1387
I99
sS'R17'
p1388
I510
ssVD10
p1389
(dp1390
S'D11'
p1391
I150
sS'D09'
p1392
I120
ssVD11
p1393
(dp1394
S'414'
p1395
I510
sS'D10'
p1396
I150
sS'222'
p1397
I870
sS'D12'
p1398
I91
ssVD12
p1399
(dp1400
S'301'
p1401
I750
sS'D11'
p1402
I91
sS'D13'
p1403
I98
ssVD13
p1404
(dp1405
S'A15'
p1406
I213
sS'A14'
p1407
I139
sS'D07'
p1408
I491
sS'D12'
p1409
I98
sS'A12'
p1410
I510
ssVD18
p1411
(dp1412
S'D17'
p1413
I99
sS'D19'
p1414
I90
ssVD19
p1415
(dp1416
S'D20'
p1417
I90
sS'D18'
p1418
I90
sS'L02'
p1419
I510
sS'132'
p1420
I630
ssV252
p1421
(dp1422
S'253'
p1423
I110
sS'251'
p1424
I99
ssV253
p1425
(dp1426
S'252'
p1427
I110
sS'254'
p1428
I69
ssV250
p1429
(dp1430
S'251'
p1431
I215
sS'249'
p1432
I127
sS'239'
p1433
I232
ssV251
p1434
(dp1435
S'252'
p1436
I99
sS'250'
p1437
I215
ssV256
p1438
(dp1439
S'257'
p1440
I90
sS'255'
p1441
I60
ssV257
p1442
(dp1443
S'256'
p1444
I90
ssV254
p1445
(dp1446
S'253'
p1447
I69
sS'L26'
p1448
I630
sS'255'
p1449
I100
ssV255
p1450
(dp1451
S'256'
p1452
I60
sS'254'
p1453
I100
ssV504
p1454
(dp1455
S'505'
p1456
I69
sS'503'
p1457
I155
ssV505
p1458
(dp1459
S'504'
p1460
I69
sS'601'
p1461
I1950
sS'213'
p1462
I216
ssV502
p1463
(dp1464
S'503'
p1465
I144
sS'501'
p1466
I172
ssV503
p1467
(dp1468
S'504'
p1469
I155
sS'502'
p1470
I144
ssV501
p1471
(dp1472
S'201'
p1473
I1740
sS'205'
p1474
I1590
sS'502'
p1475
I172
ssV630
p1476
(dp1477
S'631'
p1478
I117
sS'629'
p1479
I99
sS'F11'
p1480
I510
ssV631
p1481
(dp1482
S'630'
p1483
I117
sS'632'
p1484
I120
sS'901'
p1485
I510
sS'635'
p1486
I242
sS'629'
p1487
I154
sS'723'
p1488
I510
ssV632
p1489
(dp1490
S'631'
p1491
I120
sS'633'
p1492
I61
ssV633
p1493
(dp1494
S'632'
p1495
I61
sS'634'
p1496
I63
ssV634
p1497
(dp1498
S'633'
p1499
I63
sS'635'
p1500
I109
ssV635
p1501
(dp1502
S'631'
p1503
I242
sS'634'
p1504
I109
sS'636'
p1505
I84
sS'L03'
p1506
I510
sS'640'
p1507
I295
sS'R20'
p1508
I510
ssV636
p1509
(dp1510
S'635'
p1511
I84
sS'637'
p1512
I88
ssV637
p1513
(dp1514
S'638'
p1515
I66
sS'D21'
p1516
I510
sS'636'
p1517
I88
ssV638
p1518
(dp1519
S'639'
p1520
I88
sS'637'
p1521
I66
ssV639
p1522
(dp1523
S'638'
p1524
I88
sS'640'
p1525
I157
sS'Q01'
p1526
I510
sS'M20'
p1527
I510
sS'R23'
p1528
I510
ssVA20
p1529
(dp1530
S'A21'
p1531
I90
sS'A19'
p1532
I90
ssVA21
p1533
(dp1534
S'A20'
p1535
I90
sS'A22'
p1536
I90
ssVA22
p1537
(dp1538
S'A21'
p1539
I90
sS'A24'
p1540
I91
ssVA24
p1541
(dp1542
S'A15'
p1543
I482
sS'D14'
p1544
I128
sS'A22'
p1545
I91
sS'A25'
p1546
I125
sS'A27'
p1547
I187
sS'125'
p1548
I510
ssVA25
p1549
(dp1550
S'D14'
p1551
I90
sS'A24'
p1552
I125
sS'A27'
p1553
I144
ssVA27
p1554
(dp1555
S'902'
p1556
I630
sS'R16'
p1557
I630
sS'A24'
p1558
I187
sS'A25'
p1559
I144
sS'A28'
p1560
I79
sS'725'
p1561
I510
sS'127'
p1562
I630
ssVA28
p1563
(dp1564
S'A31'
p1565
I176
sS'A30'
p1566
I114
sS'A27'
p1567
I79
ssVR32
p1568
(dp1569
S'R31'
p1570
I120
sS'R33'
p1571
I91
ssVR33
p1572
(dp1573
S'R34'
p1574
I118
sS'F23'
p1575
I510
sS'R32'
p1576
I91
ssVM06
p1577
(dp1578
S'M05'
p1579
I60
sS'M08'
p1580
I158
ssVM04
p1581
(dp1582
S'M05'
p1583
I91
sS'M01'
p1584
I120
ssVM05
p1585
(dp1586
S'M06'
p1587
I60
sS'M04'
p1588
I91
ssVM01
p1589
(dp1590
S'M04'
p1591
I120
ssVM08
p1592
(dp1593
S'M06'
p1594
I158
sS'L17'
p1595
I510
sS'M09'
p1596
I120
ssVM09
p1597
(dp1598
S'M10'
p1599
I105
sS'M08'
p1600
I120
ssVG31
p1601
(dp1602
S'G30'
p1603
I72
sS'G32'
p1604
I87
ssVG30
p1605
(dp1606
S'G31'
p1607
I72
sS'M13'
p1608
I390
sS'M16'
p1609
I660
sS'G29'
p1610
I80
ssVG33
p1611
(dp1612
S'G32'
p1613
I92
sS'G34'
p1614
I60
ssVG32
p1615
(dp1616
S'G31'
p1617
I87
sS'G33'
p1618
I92
ssVG35
p1619
(dp1620
S'G34'
p1621
I90
sS'G36'
p1622
I90
ssVG34
p1623
(dp1624
S'G33'
p1625
I60
sS'G35'
p1626
I90
ssVG36
p1627
(dp1628
S'A42'
p1629
I113
sS'G35'
p1630
I90
sS'235'
p1631
I540
ssVE01
p1632
(dp1633
S'R25'
p1634
I420
sS'228'
p1635
I510
sS'A36'
p1636
I630
sS'A34'
p1637
I136
ssV216
p1638
(dp1639
S'217'
p1640
I111
sS'215'
p1641
I122
ssV217
p1642
(dp1643
S'216'
p1644
I111
sS'613'
p1645
I600
sS'218'
p1646
I61
ssV214
p1647
(dp1648
S'215'
p1649
I120
sS'213'
p1650
I92
ssV215
p1651
(dp1652
S'216'
p1653
I122
sS'214'
p1654
I120
ssV212
p1655
(dp1656
S'213'
p1657
I126
sS'211'
p1658
I130
ssV213
p1659
(dp1660
S'214'
p1661
I92
sS'505'
p1662
I216
sS'212'
p1663
I126
sS'221'
p1664
I644
ssV210
p1665
(dp1666
S'209'
p1667
I87
sS'211'
p1668
I120
ssV211
p1669
(dp1670
S'212'
p1671
I130
sS'210'
p1672
I120
ssV218
p1673
(dp1674
S'217'
p1675
I61
sS'219'
p1676
I64
ssV219
p1677
(dp1678
S'218'
p1679
I64
sS'220'
p1680
I90
ssVF30
p1681
(dp1682
S'F31'
p1683
I61
sS'F29'
p1684
I108
ssVF31
p1685
(dp1686
S'F30'
p1687
I61
sS'F32'
p1688
I60
ssVF32
p1689
(dp1690
S'F31'
p1691
I60
sS'F33'
p1692
I108
ssVF33
p1693
(dp1694
S'F32'
p1695
I108
sS'F34'
p1696
I90
ssVF34
p1697
(dp1698
S'F33'
p1699
I90
sS'F35'
p1700
I99
ssVF35
p1701
(dp1702
S'F34'
p1703
I99
sS'F36'
p1704
I203
ssVF36
p1705
(dp1706
S'F38'
p1707
I109
sS'F35'
p1708
I203
ssVF38
p1709
(dp1710
S'F39'
p1711
I194
sS'F36'
p1712
I109
ssVF39
p1713
(dp1714
S'F38'
p1715
I194
sS'D42'
p1716
I90
ssVA64
p1717
(dp1718
S'A65'
p1719
I74
sS'A63'
p1720
I151
ssVA65
p1721
(dp1722
S'A64'
p1723
I74
ssVA60
p1724
(dp1725
S'A59'
p1726
I90
sS'A61'
p1727
I88
ssVA61
p1728
(dp1729
S'H02'
p1730
I247
sS'H01'
p1731
I190
sS'A60'
p1732
I88
sS'A63'
p1733
I107
ssVA63
p1734
(dp1735
S'A64'
p1736
I151
sS'A61'
p1737
I107
ssVH09
p1738
(dp1739
S'H10'
p1740
I118
sS'H08'
p1741
I90
ssVH08
p1742
(dp1743
S'H09'
p1744
I90
sS'H07'
p1745
I176
ssVH03
p1746
(dp1747
S'H02'
p1748
I127
sS'H04'
p1749
I394
ssVH02
p1750
(dp1751
S'H03'
p1752
I127
sS'H01'
p1753
I55
sS'A61'
p1754
I247
ssVH01
p1755
(dp1756
S'H02'
p1757
I55
sS'A61'
p1758
I190
ssVH07
p1759
(dp1760
S'H08'
p1761
I176
sS'H06'
p1762
I150
ssVH06
p1763
(dp1764
S'H12'
p1765
I1080
sS'H07'
p1766
I150
sS'H04'
p1767
I243
ssVH04
p1768
(dp1769
S'H03'
p1770
I394
sS'H12'
p1771
I225
sS'H06'
p1772
I243
ssV115
p1773
(dp1774
S'114'
p1775
I90
sS'116'
p1776
I114
ssV114
p1777
(dp1778
S'115'
p1779
I90
sS'113'
p1780
I120
ssV117
p1781
(dp1782
S'116'
p1783
I137
sS'118'
p1784
I60
ssV116
p1785
(dp1786
S'115'
p1787
I114
sS'117'
p1788
I137
ssV111
p1789
(dp1790
S'110'
p1791
I90
sS'112'
p1792
I120
ssV110
p1793
(dp1794
S'109'
p1795
I88
sS'111'
p1796
I90
ssV113
p1797
(dp1798
S'114'
p1799
I120
sS'112'
p1800
I98
ssV112
p1801
(dp1802
S'A09'
p1803
I510
sS'111'
p1804
I120
sS'113'
p1805
I98
ssV119
p1806
(dp1807
S'120'
p1808
I105
sS'118'
p1809
I77
ssV118
p1810
(dp1811
S'117'
p1812
I60
sS'119'
p1813
I77
ssVR16
p1814
(dp1815
S'902'
p1816
I510
sS'R17'
p1817
I98
sS'R14'
p1818
I202
sS'R15'
p1819
I93
sS'A27'
p1820
I630
sS'725'
p1821
I510
sS'127'
p1822
I510
ssVR17
p1823
(dp1824
S'R16'
p1825
I98
sS'D17'
p1826
I510
sS'R18'
p1827
I60
sS'R20'
p1828
I184
ssVR14
p1829
(dp1830
S'R16'
p1831
I202
sS'R15'
p1832
I105
sS'R13'
p1833
I151
ssVR15
p1834
(dp1835
S'R16'
p1836
I93
sS'R14'
p1837
I105
ssVR13
p1838
(dp1839
S'R14'
p1840
I151
sS'R11'
p1841
I99
ssVR11
p1842
(dp1843
S'R09'
p1844
I278
sS'B08'
p1845
I630
sS'629'
p1846
I510
sS'R13'
p1847
I99
sS'G21'
p1848
I364
ssVR18
p1849
(dp1850
S'R17'
p1851
I60
sS'R19'
p1852
I76
ssVR19
p1853
(dp1854
S'R18'
p1855
I76
sS'R20'
p1856
I96
ssV420
p1857
(dp1858
S'423'
p1859
I312
sS'419'
p1860
I88
sS'140'
p1861
I480
ssV423
p1862
(dp1863
S'234'
p1864
I116
sS'420'
p1865
I312
sS'232'
p1866
I630
sS'R28'
p1867
I510
ssV301
p1868
(dp1869
S'302'
p1870
I161
sS'D12'
p1871
I750
sS'A12'
p1872
I720
ssV302
p1873
(dp1874
S'301'
p1875
I161
sS'224'
p1876
I134
sS'222'
p1877
I720
ssVB16
p1878
(dp1879
S'B17'
p1880
I120
sS'B15'
p1881
I103
sS'N04'
p1882
I510
ssVB17
p1883
(dp1884
S'B16'
p1885
I120
sS'B18'
p1886
I104
ssVB14
p1887
(dp1888
S'B15'
p1889
I106
sS'B13'
p1890
I90
ssVB15
p1891
(dp1892
S'B16'
p1893
I103
sS'B14'
p1894
I106
ssVB12
p1895
(dp1896
S'R36'
p1897
I240
sS'B13'
p1898
I133
ssVB13
p1899
(dp1900
S'B14'
p1901
I90
sS'B12'
p1902
I133
ssVB10
p1903
(dp1904
S'B08'
p1905
I171
sS'D15'
p1906
I114
ssVB18
p1907
(dp1908
S'B17'
p1909
I104
sS'B19'
p1910
I90
ssVB19
p1911
(dp1912
S'B18'
p1913
I90
sS'B20'
p1914
I88
ssVL21
p1915
(dp1916
S'L20'
p1917
I90
sS'L22'
p1918
I68
ssVL20
p1919
(dp1920
S'L21'
p1921
I90
sS'L19'
p1922
I141
ssVL22
p1923
(dp1924
S'L21'
p1925
I68
sS'A51'
p1926
I510
sS'J27'
p1927
I510
sS'L24'
p1928
I95
ssVL25
p1929
(dp1930
S'L24'
p1931
I90
sS'L26'
p1932
I81
ssVL24
p1933
(dp1934
S'L22'
p1935
I95
sS'L25'
p1936
I90
ssVL27
p1937
(dp1938
S'L28'
p1939
I123
sS'L26'
p1940
I90
ssVJ19
p1941
(dp1942
S'J16'
p1943
I150
sS'J17'
p1944
I69
sS'J20'
p1945
I110
ssVJ16
p1946
(dp1947
S'J17'
p1948
I90
sS'J15'
p1949
I111
sS'J19'
p1950
I150
ssVJ17
p1951
(dp1952
S'J16'
p1953
I90
sS'J19'
p1954
I69
sS'J15'
p1955
I180
sS'J20'
p1956
I150
ssVJ14
p1957
(dp1958
S'J15'
p1959
I90
sS'J12'
p1960
I180
sS'J13'
p1961
I120
ssVJ15
p1962
(dp1963
S'J16'
p1964
I111
sS'J17'
p1965
I180
sS'J14'
p1966
I90
sS'J13'
p1967
I180
ssVJ12
p1968
(dp1969
S'G06'
p1970
I240
sS'J14'
p1971
I180
sS'J13'
p1972
I90
ssVJ13
p1973
(dp1974
S'J14'
p1975
I120
sS'J15'
p1976
I180
sS'J12'
p1977
I90
sS'G06'
p1978
I300
ssVD29
p1979
(dp1980
S'D28'
p1981
I91
sS'D30'
p1982
I48
ssVD28
p1983
(dp1984
S'D29'
p1985
I91
sS'D26'
p1986
I120
sS'D27'
p1987
I88
sS'D31'
p1988
I152
ssVD21
p1989
(dp1990
S'D20'
p1991
I136
sS'637'
p1992
I510
sS'D22'
p1993
I124
sS'F14'
p1994
I90
sS'M18'
p1995
I189
ssVD20
p1996
(dp1997
S'D21'
p1998
I136
sS'A32'
p1999
I510
sS'D17'
p2000
I182
sS'D19'
p2001
I90
ssVD22
p2002
(dp2003
S'D21'
p2004
I124
sS'M19'
p2005
I480
sS'R30'
p2006
I487
sS'R31'
p2007
I637
ssVD25
p2008
(dp2009
S'D24'
p2010
I140
sS'D26'
p2011
I256
ssVD24
p2012
(dp2013
S'R30'
p2014
I95
sS'D25'
p2015
I140
sS'R31'
p2016
I630
sS'235'
p2017
I510
ssVD27
p2018
(dp2019
S'D28'
p2020
I88
sS'D26'
p2021
I91
ssVD26
p2022
(dp2023
S'D28'
p2024
I120
sS'D25'
p2025
I256
sS'D27'
p2026
I91
sS'S04'
p2027
I180
ssV229
p2028
(dp2029
S'418'
p2030
I630
sS'A38'
p2031
I510
sS'230'
p2032
I77
sS'M22'
p2033
I630
sS'228'
p2034
I135
ssV228
p2035
(dp2036
S'137'
p2037
I77
sS'A36'
p2038
I510
sS'229'
p2039
I135
sS'E01'
p2040
I510
ssV227
p2041
(dp2042
S'120'
p2043
I273
sS'226'
p2044
I60
ssV226
p2045
(dp2046
S'227'
p2047
I60
sS'225'
p2048
I90
ssV225
p2049
(dp2050
S'226'
p2051
I90
sS'224'
p2052
I108
ssV224
p2053
(dp2054
S'302'
p2055
I134
sS'225'
p2056
I108
sS'222'
p2057
I220
ssV222
p2058
(dp2059
S'619'
p2060
I840
sS'D11'
p2061
I870
sS'302'
p2062
I720
sS'415'
p2063
I510
sS'416'
p2064
I171
sS'224'
p2065
I220
sS'221'
p2066
I118
ssV221
p2067
(dp2068
S'220'
p2069
I143
sS'213'
p2070
I644
sS'619'
p2071
I780
sS'222'
p2072
I118
ssV220
p2073
(dp2074
S'221'
p2075
I143
sS'219'
p2076
I90
ssVS01
p2077
(dp2078
S'S03'
p2079
I120
sS'A45'
p2080
I510
ssVS03
p2081
(dp2082
S'S01'
p2083
I120
sS'S04'
p2084
I105
ssVS04
p2085
(dp2086
S'S03'
p2087
I105
sS'239'
p2088
I510
sS'D26'
p2089
I180
ssV726
p2090
(dp2091
S'725'
p2092
I212
ssV724
p2093
(dp2094
S'D16'
p2095
I510
sS'725'
p2096
I90
sS'723'
p2097
I87
ssV725
p2098
(dp2099
S'902'
p2100
I630
sS'R16'
p2101
I510
sS'A27'
p2102
I510
sS'726'
p2103
I212
sS'724'
p2104
I90
sS'127'
p2105
I510
ssV723
p2106
(dp2107
S'631'
p2108
I510
sS'724'
p2109
I87
sS'901'
p2110
I630
sS'721'
p2111
I289
ssV720
p2112
(dp2113
S'719'
p2114
I118
sS'721'
p2115
I57
ssV721
p2116
(dp2117
S'723'
p2118
I289
sS'720'
p2119
I57
ssV604
p2120
(dp2121
S'606'
p2122
I67
sS'603'
p2123
I90
ssV607
p2124
(dp2125
S'606'
p2126
I60
sS'608'
p2127
I137
ssV606
p2128
(dp2129
S'604'
p2130
I67
sS'607'
p2131
I60
ssV601
p2132
(dp2133
S'505'
p2134
I1950
sS'602'
p2135
I150
ssV603
p2136
(dp2137
S'604'
p2138
I90
sS'602'
p2139
I90
ssV602
p2140
(dp2141
S'601'
p2142
I150
sS'603'
p2143
I90
ssV609
p2144
(dp2145
S'610'
p2146
I90
sS'608'
p2147
I84
ssV608
p2148
(dp2149
S'613'
p2150
I364
sS'607'
p2151
I137
sS'609'
p2152
I84
ssVM18
p2153
(dp2154
S'M19'
p2155
I100
sS'D21'
p2156
I189
sS'F15'
p2157
I510
sS'M16'
p2158
I455
ssVA15
p2159
(dp2160
S'A14'
p2161
I107
sS'A16'
p2162
I91
sS'A24'
p2163
I482
sS'A12'
p2164
I199
sS'D13'
p2165
I213
ssVA14
p2166
(dp2167
S'A15'
p2168
I107
sS'A12'
p2169
I105
sS'D13'
p2170
I139
ssVA17
p2171
(dp2172
S'A16'
p2173
I90
sS'A18'
p2174
I60
ssVA16
p2175
(dp2176
S'A15'
p2177
I91
sS'A17'
p2178
I90
ssVA11
p2179
(dp2180
S'A10'
p2181
I80
sS'A12'
p2182
I138
ssVA10
p2183
(dp2184
S'A09'
p2185
I78
sS'A11'
p2186
I80
ssVA12
p2187
(dp2188
S'A15'
p2189
I199
sS'A14'
p2190
I105
sS'A09'
p2191
I205
sS'A11'
p2192
I138
sS'D13'
p2193
I510
sS'301'
p2194
I720
ssVA19
p2195
(dp2196
S'A20'
p2197
I90
sS'120'
p2198
I720
sS'A18'
p2199
I89
ssVA18
p2200
(dp2201
S'A17'
p2202
I60
sS'A19'
p2203
I89
ssVR27
p2204
(dp2205
S'R26'
p2206
I116
sS'140'
p2207
I450
sS'R28'
p2208
I228
ssVR29
p2209
(dp2210
S'A41'
p2211
I420
sS'R30'
p2212
I115
sS'R28'
p2213
I119
ssVR28
p2214
(dp2215
S'R27'
p2216
I228
sS'423'
p2217
I510
sS'232'
p2218
I510
sS'R29'
p2219
I119
ssVF18
p2220
(dp2221
S'F16'
p2222
I183
sS'A41'
p2223
I95
ssVR26
p2224
(dp2225
S'R27'
p2226
I116
sS'R25'
p2227
I84
sS'139'
p2228
I360
ssVR25
p2229
(dp2230
S'R26'
p2231
I84
sS'R24'
p2232
I116
sS'418'
p2233
I390
sS'E01'
p2234
I420
ssVR24
p2235
(dp2236
S'R25'
p2237
I116
sS'R23'
p2238
I150
ssVR23
p2239
(dp2240
S'639'
p2241
I510
sS'R24'
p2242
I150
sS'M20'
p2243
I630
sS'R22'
p2244
I96
sS'Q01'
p2245
I510
ssVR22
p2246
(dp2247
S'Q01'
p2248
I123
sS'R23'
p2249
I96
sS'R21'
p2250
I121
ssVR21
p2251
(dp2252
S'R22'
p2253
I121
sS'R20'
p2254
I94
ssVR20
p2255
(dp2256
S'R17'
p2257
I184
sS'635'
p2258
I510
sS'L03'
p2259
I510
sS'R19'
p2260
I96
sS'Q01'
p2261
I249
sS'R21'
p2262
I94
ss.